target datalayout = "e-m:e-p270:32:32-p271:32:32-p272:64:64-i64:64-i128:128-f80:128-n8:16:32:64-S128"
target triple = "x86_64-unknown-linux-gnu"

%"class.dpx::Writer" = type { ptr, %"struct.dpx::Header", i64, ptr }
%"struct.dpx::Header" = type <{ %"struct.dpx::GenericHeader", %"struct.dpx::IndustryHeader", i8, [3 x i8] }>
%"struct.dpx::GenericHeader" = type { i32, i32, [8 x i8], i32, i32, i32, i32, i32, [100 x i8], [24 x i8], [100 x i8], [200 x i8], [200 x i8], i32, [104 x i8], i16, i16, i32, i32, [8 x %"struct.dpx::ImageElement"], [52 x i8], i32, i32, float, float, i32, i32, [100 x i8], [24 x i8], [32 x i8], [32 x i8], [4 x i16], [2 x i32], float, float, [20 x i8] }
%"struct.dpx::ImageElement" = type { i32, i32, float, i32, float, i8, i8, i8, i8, i16, i16, i32, i32, i32, [32 x i8] }
%"struct.dpx::IndustryHeader" = type { [2 x i8], [2 x i8], [2 x i8], [6 x i8], [4 x i8], [32 x i8], i32, i32, i32, float, float, [32 x i8], [100 x i8], [56 x i8], i32, i32, i8, i8, i8, i8, float, float, float, float, float, float, float, float, float, float, [76 x i8] }

; Function Attrs: mustprogress uwtable
define linkonce_odr hidden noundef zeroext i1 @_ZN9OutStream10WriteCheckEPvm(ptr noundef nonnull align 8 dereferenceable(16) %this, ptr noundef %buf, i64 noundef %size) #6 comdat align 2 {
entry:
  %this.addr = alloca ptr, align 8
  %buf.addr = alloca ptr, align 8
  %size.addr = alloca i64, align 8
  store ptr %this, ptr %this.addr, align 8
  store ptr %buf, ptr %buf.addr, align 8
  store i64 %size, ptr %size.addr, align 8
  %this1 = load ptr, ptr %this.addr, align 8
  %0 = load ptr, ptr %buf.addr, align 8
  %1 = load i64, ptr %size.addr, align 8
  %vtable = load ptr, ptr %this1, align 8
  %vfn = getelementptr inbounds ptr, ptr %vtable, i64 3
  %2 = load ptr, ptr %vfn, align 8
  %call = call noundef i64 %2(ptr noundef nonnull align 8 dereferenceable(16) %this1, ptr noundef %0, i64 noundef %1)
  %3 = load i64, ptr %size.addr, align 8
  %cmp = icmp eq i64 %call, %3
  ret i1 %cmp
}

; Function Attrs: mustprogress uwtable
define hidden noundef zeroext i1 @_ZN3dpx6Writer12WriteThroughEPvjjiijjPc(ptr noundef nonnull align 8 dereferenceable(2080) %this, ptr noundef %data, i32 noundef %width, i32 noundef %height, i32 noundef %noc, i32 noundef %bytes, i32 noundef %eolnPad, i32 noundef %eoimPad, ptr noundef %blank) #6 align 2 {
entry:
  %this.addr = alloca ptr, align 8
  %data.addr = alloca ptr, align 8
  %width.addr = alloca i32, align 4
  %height.addr = alloca i32, align 4
  %noc.addr = alloca i32, align 4
  %bytes.addr = alloca i32, align 4
  %eolnPad.addr = alloca i32, align 4
  %eoimPad.addr = alloca i32, align 4
  %blank.addr = alloca ptr, align 8
  %status = alloca i8, align 1
  %count = alloca i64, align 8
  %i = alloca i32, align 4
  %imageBuf = alloca ptr, align 8
  store ptr %this, ptr %this.addr, align 8
  store ptr %data, ptr %data.addr, align 8
  store i32 %width, ptr %width.addr, align 4
  store i32 %height, ptr %height.addr, align 4
  store i32 %noc, ptr %noc.addr, align 4
  store i32 %bytes, ptr %bytes.addr, align 4
  store i32 %eolnPad, ptr %eolnPad.addr, align 4
  store i32 %eoimPad, ptr %eoimPad.addr, align 4
  store ptr %blank, ptr %blank.addr, align 8
  %this1 = load ptr, ptr %this.addr, align 8
  store i8 1, ptr %status, align 1
  %0 = load i32, ptr %width.addr, align 4
  %conv = zext i32 %0 to i64
  %1 = load i32, ptr %height.addr, align 4
  %conv2 = zext i32 %1 to i64
  %mul = mul i64 %conv, %conv2
  %2 = load i32, ptr %noc.addr, align 4
  %conv3 = sext i32 %2 to i64
  %mul4 = mul i64 %mul, %conv3
  store i64 %mul4, ptr %count, align 8
  %3 = load ptr, ptr %data.addr, align 8
  store ptr %3, ptr %imageBuf, align 8
  %4 = load i32, ptr %bytes.addr, align 4
  %conv5 = sext i32 %4 to i64
  %5 = load i64, ptr %count, align 8
  %mul6 = mul i64 %conv5, %5
  %6 = load i32, ptr %eolnPad.addr, align 4
  %7 = load i32, ptr %height.addr, align 4
  %mul7 = mul i32 %6, %7
  %conv8 = zext i32 %mul7 to i64
  %add = add i64 %mul6, %conv8
  %fileLoc = getelementptr inbounds %"class.dpx::Writer", ptr %this1, i32 0, i32 2
  %8 = load i64, ptr %fileLoc, align 8
  %add9 = add i64 %8, %add
  store i64 %add9, ptr %fileLoc, align 8
  %9 = load i32, ptr %eolnPad.addr, align 4
  %tobool = icmp ne i32 %9, 0
  br i1 %tobool, label %if.then, label %if.else

if.then:                                          ; preds = %entry
  store i32 0, ptr %i, align 4
  br label %for.cond

for.cond:                                         ; preds = %for.inc, %if.then
  %10 = load i32, ptr %i, align 4
  %11 = load i32, ptr %height.addr, align 4
  %cmp = icmp ult i32 %10, %11
  br i1 %cmp, label %for.body, label %for.end

for.body:                                         ; preds = %for.cond
  %fd = getelementptr inbounds %"class.dpx::Writer", ptr %this1, i32 0, i32 3
  %12 = load ptr, ptr %fd, align 8
  %13 = load ptr, ptr %imageBuf, align 8
  %14 = load i32, ptr %width.addr, align 4
  %15 = load i32, ptr %bytes.addr, align 4
  %mul10 = mul i32 %14, %15
  %16 = load i32, ptr %i, align 4
  %mul11 = mul i32 %mul10, %16
  %idx.ext = zext i32 %mul11 to i64
  %add.ptr = getelementptr inbounds i8, ptr %13, i64 %idx.ext
  %17 = load i32, ptr %bytes.addr, align 4
  %18 = load i32, ptr %width.addr, align 4
  %mul12 = mul i32 %17, %18
  %conv13 = zext i32 %mul12 to i64
  %call = call noundef zeroext i1 @_ZN9OutStream10WriteCheckEPvm(ptr noundef nonnull align 8 dereferenceable(16) %12, ptr noundef %add.ptr, i64 noundef %conv13)
  br i1 %call, label %if.end, label %if.then14

if.then14:                                        ; preds = %for.body
  store i8 0, ptr %status, align 1
  br label %for.end

if.end:                                           ; preds = %for.body
  %fd15 = getelementptr inbounds %"class.dpx::Writer", ptr %this1, i32 0, i32 3
  %19 = load ptr, ptr %fd15, align 8
  %20 = load ptr, ptr %blank.addr, align 8
  %21 = load i32, ptr %eoimPad.addr, align 4
  %conv16 = zext i32 %21 to i64
  %call17 = call noundef zeroext i1 @_ZN9OutStream10WriteCheckEPvm(ptr noundef nonnull align 8 dereferenceable(16) %19, ptr noundef %20, i64 noundef %conv16)
  br i1 %call17, label %if.end19, label %if.then18

if.then18:                                        ; preds = %if.end
  store i8 0, ptr %status, align 1
  br label %for.end

if.end19:                                         ; preds = %if.end
  br label %for.inc

for.inc:                                          ; preds = %if.end19
  %22 = load i32, ptr %i, align 4
  %inc = add i32 %22, 1
  store i32 %inc, ptr %i, align 4
  br label %for.cond, !llvm.loop !7

for.end:                                          ; preds = %if.then18, %if.then14, %for.cond
  br label %if.end26

if.else:                                          ; preds = %entry
  %fd20 = getelementptr inbounds %"class.dpx::Writer", ptr %this1, i32 0, i32 3
  %23 = load ptr, ptr %fd20, align 8
  %24 = load ptr, ptr %imageBuf, align 8
  %25 = load i32, ptr %bytes.addr, align 4
  %conv21 = sext i32 %25 to i64
  %26 = load i64, ptr %count, align 8
  %mul22 = mul i64 %conv21, %26
  %call23 = call noundef zeroext i1 @_ZN9OutStream10WriteCheckEPvm(ptr noundef nonnull align 8 dereferenceable(16) %23, ptr noundef %24, i64 noundef %mul22)
  br i1 %call23, label %if.end25, label %if.then24

if.then24:                                        ; preds = %if.else
  store i8 0, ptr %status, align 1
  br label %if.end25

if.end25:                                         ; preds = %if.then24, %if.else
  br label %if.end26

if.end26:                                         ; preds = %if.end25, %for.end
  %27 = load i8, ptr %status, align 1
  %tobool27 = trunc i8 %27 to i1
  br i1 %tobool27, label %land.lhs.true, label %if.end36

land.lhs.true:                                    ; preds = %if.end26
  %28 = load i32, ptr %eoimPad.addr, align 4
  %tobool28 = icmp ne i32 %28, 0
  br i1 %tobool28, label %if.then29, label %if.end36

if.then29:                                        ; preds = %land.lhs.true
  %29 = load i32, ptr %eoimPad.addr, align 4
  %conv30 = zext i32 %29 to i64
  %fileLoc31 = getelementptr inbounds %"class.dpx::Writer", ptr %this1, i32 0, i32 2
  %30 = load i64, ptr %fileLoc31, align 8
  %add32 = add nsw i64 %30, %conv30
  store i64 %add32, ptr %fileLoc31, align 8
  %fd33 = getelementptr inbounds %"class.dpx::Writer", ptr %this1, i32 0, i32 3
  %31 = load ptr, ptr %fd33, align 8
  %32 = load ptr, ptr %blank.addr, align 8
  %33 = load i32, ptr %eoimPad.addr, align 4
  %conv34 = zext i32 %33 to i64
  %call35 = call noundef zeroext i1 @_ZN9OutStream10WriteCheckEPvm(ptr noundef nonnull align 8 dereferenceable(16) %31, ptr noundef %32, i64 noundef %conv34)
  %frombool = zext i1 %call35 to i8
  store i8 %frombool, ptr %status, align 1
  br label %if.end36

if.end36:                                         ; preds = %if.then29, %land.lhs.true, %if.end26
  %34 = load i8, ptr %status, align 1
  %tobool37 = trunc i8 %34 to i1
  ret i1 %tobool37
}