; Function Attrs: mustprogress uwtable
define hidden noundef zeroext i1 @_ZN3dpx6Writer12WriteThroughEPvjjiijjPc(ptr nocapture noundef nonnull align 8 dereferenceable(2080) %this, ptr noundef %data, i32 noundef %width, i32 noundef %height, i32 noundef %noc, i32 noundef %bytes, i32 noundef %eolnPad, i32 noundef %eoimPad, ptr noundef %blank) local_unnamed_addr #5 align 2 {
entry:
  %conv = zext i32 %width to i64
  %conv2 = zext i32 %height to i64
  %mul = mul nuw i64 %conv2, %conv
  %conv3 = sext i32 %noc to i64
  %mul4 = mul i64 %mul, %conv3
  %conv5 = sext i32 %bytes to i64
  %mul6 = mul i64 %mul4, %conv5
  %mul7 = mul i32 %eolnPad, %height
  %conv8 = zext i32 %mul7 to i64
  %add = add i64 %mul6, %conv8
  %fileLoc = getelementptr inbounds i8, ptr %this, i64 2064
  %0 = load i64, ptr %fileLoc, align 8
  %add9 = add i64 %add, %0
  store i64 %add9, ptr %fileLoc, align 8
  %tobool.not = icmp eq i32 %eolnPad, 0
  br i1 %tobool.not, label %if.else, label %for.cond.preheader

for.cond.preheader:                               ; preds = %entry
  %cmp33.not = icmp eq i32 %height, 0
  br i1 %cmp33.not, label %if.end26, label %for.body.lr.ph

for.body.lr.ph:                                   ; preds = %for.cond.preheader
  %fd = getelementptr inbounds i8, ptr %this, i64 2072
  %mul10 = mul i32 %bytes, %width
  %conv13 = zext i32 %mul10 to i64
  %conv16 = zext i32 %eoimPad to i64
  br label %for.body

for.cond:                                         ; preds = %if.end
  %indvars.iv.next = add nuw nsw i64 %indvars.iv, 1
  %exitcond.not = icmp eq i64 %indvars.iv.next, %conv2
  br i1 %exitcond.not, label %if.end26, label %for.body, !llvm.loop !9

for.body:                                         ; preds = %for.body.lr.ph, %for.cond
  %indvars.iv = phi i64 [ 0, %for.body.lr.ph ], [ %indvars.iv.next, %for.cond ]
  %1 = load ptr, ptr %fd, align 8
  %2 = trunc i64 %indvars.iv to i32
  %mul11 = mul i32 %mul10, %2
  %idx.ext = zext i32 %mul11 to i64
  %add.ptr = getelementptr inbounds i8, ptr %data, i64 %idx.ext
  %vtable.i = load ptr, ptr %1, align 8
  %vfn.i = getelementptr inbounds i8, ptr %vtable.i, i64 24
  %3 = load ptr, ptr %vfn.i, align 8
  %call.i = tail call noundef i64 %3(ptr noundef nonnull align 8 dereferenceable(16) %1, ptr noundef %add.ptr, i64 noundef %conv13)
  %cmp.i = icmp eq i64 %call.i, %conv13
  br i1 %cmp.i, label %if.end, label %if.end36

if.end:                                           ; preds = %for.body
  %4 = load ptr, ptr %fd, align 8
  %vtable.i18 = load ptr, ptr %4, align 8
  %vfn.i19 = getelementptr inbounds i8, ptr %vtable.i18, i64 24
  %5 = load ptr, ptr %vfn.i19, align 8
  %call.i20 = tail call noundef i64 %5(ptr noundef nonnull align 8 dereferenceable(16) %4, ptr noundef %blank, i64 noundef %conv16)
  %cmp.i21 = icmp eq i64 %call.i20, %conv16
  br i1 %cmp.i21, label %for.cond, label %if.end36

if.else:                                          ; preds = %entry
  %fd20 = getelementptr inbounds i8, ptr %this, i64 2072
  %6 = load ptr, ptr %fd20, align 8
  %vtable.i22 = load ptr, ptr %6, align 8
  %vfn.i23 = getelementptr inbounds i8, ptr %vtable.i22, i64 24
  %7 = load ptr, ptr %vfn.i23, align 8
  %call.i24 = tail call noundef i64 %7(ptr noundef nonnull align 8 dereferenceable(16) %6, ptr noundef %data, i64 noundef %mul6)
  %cmp.i25 = icmp eq i64 %call.i24, %mul6
  br label %if.end26

if.end26:                                         ; preds = %for.cond, %for.cond.preheader, %if.else
  %tobool27 = phi i1 [ %cmp.i25, %if.else ], [ true, %for.cond.preheader ], [ true, %for.cond ]
  %tobool28 = icmp ne i32 %eoimPad, 0
  %or.cond = and i1 %tobool28, %tobool27
  br i1 %or.cond, label %if.then29, label %if.end36

if.then29:                                        ; preds = %if.end26
  %conv30 = zext i32 %eoimPad to i64
  %8 = load i64, ptr %fileLoc, align 8
  %add32 = add nsw i64 %8, %conv30
  store i64 %add32, ptr %fileLoc, align 8
  %fd33 = getelementptr inbounds i8, ptr %this, i64 2072
  %9 = load ptr, ptr %fd33, align 8
  %vtable.i26 = load ptr, ptr %9, align 8
  %vfn.i27 = getelementptr inbounds i8, ptr %vtable.i26, i64 24
  %10 = load ptr, ptr %vfn.i27, align 8
  %call.i28 = tail call noundef i64 %10(ptr noundef nonnull align 8 dereferenceable(16) %9, ptr noundef %blank, i64 noundef %conv30)
  %cmp.i29 = icmp eq i64 %call.i28, %conv30
  br label %if.end36

if.end36:                                         ; preds = %if.end, %for.body, %if.then29, %if.end26
  %status.1 = phi i1 [ %cmp.i29, %if.then29 ], [ %tobool27, %if.end26 ], [ false, %for.body ], [ false, %if.end ]
  ret i1 %status.1
}